target datalayout = "e-m:e-p270:32:32-p271:32:32-p272:64:64-i64:64-i128:128-f80:128-n8:16:32:64-S128"
target triple = "x86_64-pc-linux-gnu"

%struct._zval_struct = type { %union._zend_value, %union.anon.0, %union.anon.3 }
%union._zend_value = type { i64 }
%union.anon.0 = type { i32 }
%union.anon.3 = type { i32 }
%struct._zend_execute_data = type { ptr, ptr, ptr, ptr, %struct._zval_struct, ptr, ptr, ptr, ptr }

@date_ce_period = hidden global ptr null, align 8
@.str.91 = private unnamed_addr constant [49 x i8] c"Invalid serialization data for DatePeriod object\00", align 1

; Function Attrs: nounwind uwtable
define internal ptr @php_period_obj_from_obj(ptr noundef %0) #0 {
  %2 = alloca ptr, align 8
  store ptr %0, ptr %2, align 8
  %3 = load ptr, ptr %2, align 8
  %4 = getelementptr inbounds i8, ptr %3, i64 -48
  ret ptr %4
}

; Function Attrs: nounwind uwtable
define hidden void @zim_DatePeriod___set_state(ptr noundef %0, ptr noundef %1) #0 {
  %3 = alloca ptr, align 8
  %4 = alloca ptr, align 8
  %5 = alloca ptr, align 8
  %6 = alloca i1, align 1
  %7 = alloca ptr, align 8
  %8 = alloca ptr, align 8
  %9 = alloca i8, align 1
  %10 = alloca i8, align 1
  %11 = alloca ptr, align 8
  %12 = alloca ptr, align 8
  %13 = alloca ptr, align 8
  %14 = alloca ptr, align 8
  %15 = alloca ptr, align 8
  %16 = alloca i32, align 4
  %17 = alloca i32, align 4
  %18 = alloca i32, align 4
  %19 = alloca i32, align 4
  %20 = alloca i32, align 4
  %21 = alloca ptr, align 8
  %22 = alloca ptr, align 8
  %23 = alloca i32, align 4
  %24 = alloca ptr, align 8
  %25 = alloca i8, align 1
  %26 = alloca i8, align 1
  %27 = alloca i32, align 4
  store ptr %0, ptr %11, align 8
  store ptr %1, ptr %12, align 8
  br label %28

28:                                               ; preds = %2
  store i32 0, ptr %16, align 4
  store i32 1, ptr %17, align 4
  store i32 1, ptr %18, align 4
  %29 = load ptr, ptr %11, align 8
  %30 = getelementptr inbounds %struct._zend_execute_data, ptr %29, i32 0, i32 4
  %31 = getelementptr inbounds %struct._zval_struct, ptr %30, i32 0, i32 2
  %32 = load i32, ptr %31, align 4
  store i32 %32, ptr %19, align 4
  store i32 0, ptr %20, align 4
  store ptr null, ptr %22, align 8
  store i32 0, ptr %23, align 4
  store ptr null, ptr %24, align 8
  store i8 0, ptr %25, align 1
  store i8 0, ptr %26, align 1
  store i32 0, ptr %27, align 4
  br label %33

33:                                               ; preds = %28
  %34 = load i32, ptr %19, align 4
  %35 = load i32, ptr %17, align 4
  %36 = icmp ult i32 %34, %35
  %37 = xor i1 %36, true
  %38 = xor i1 %37, true
  %39 = zext i1 %38 to i32
  %40 = sext i32 %39 to i64
  %41 = icmp ne i64 %40, 0
  br i1 %41, label %51, label %42

42:                                               ; preds = %33
  %43 = load i32, ptr %19, align 4
  %44 = load i32, ptr %18, align 4
  %45 = icmp ugt i32 %43, %44
  %46 = xor i1 %45, true
  %47 = xor i1 %46, true
  %48 = zext i1 %47 to i32
  %49 = sext i32 %48 to i64
  %50 = icmp ne i64 %49, 0
  br i1 %50, label %51, label %54

51:                                               ; preds = %42, %33
  %52 = load i32, ptr %17, align 4
  %53 = load i32, ptr %18, align 4
  call void @zend_wrong_parameters_count_error(i32 noundef %52, i32 noundef %53)
  store i32 1, ptr %27, align 4
  br label %148

54:                                               ; preds = %42
  %55 = load ptr, ptr %11, align 8
  %56 = getelementptr inbounds %struct._zval_struct, ptr %55, i64 4
  store ptr %56, ptr %21, align 8
  %57 = load i32, ptr %20, align 4
  %58 = add i32 %57, 1
  store i32 %58, ptr %20, align 4
  %59 = load i32, ptr %20, align 4
  %60 = load i32, ptr %17, align 4
  %61 = icmp ule i32 %59, %60
  br i1 %61, label %67, label %62

62:                                               ; preds = %54
  %63 = load i8, ptr %26, align 1
  %64 = trunc i8 %63 to i1
  %65 = zext i1 %64 to i32
  %66 = icmp eq i32 %65, 1
  br label %67

67:                                               ; preds = %62, %54
  %68 = phi i1 [ true, %54 ], [ %66, %62 ]
  call void @llvm.assume(i1 %68)
  %69 = load i32, ptr %20, align 4
  %70 = load i32, ptr %17, align 4
  %71 = icmp ugt i32 %69, %70
  br i1 %71, label %77, label %72

72:                                               ; preds = %67
  %73 = load i8, ptr %26, align 1
  %74 = trunc i8 %73 to i1
  %75 = zext i1 %74 to i32
  %76 = icmp eq i32 %75, 0
  br label %77

77:                                               ; preds = %72, %67
  %78 = phi i1 [ true, %67 ], [ %76, %72 ]
  call void @llvm.assume(i1 %78)
  %79 = load i8, ptr %26, align 1
  %80 = trunc i8 %79 to i1
  br i1 %80, label %81, label %92

81:                                               ; preds = %77
  %82 = load i32, ptr %20, align 4
  %83 = load i32, ptr %19, align 4
  %84 = icmp ugt i32 %82, %83
  %85 = xor i1 %84, true
  %86 = xor i1 %85, true
  %87 = zext i1 %86 to i32
  %88 = sext i32 %87 to i64
  %89 = icmp ne i64 %88, 0
  br i1 %89, label %90, label %91

90:                                               ; preds = %81
  br label %148

91:                                               ; preds = %81
  br label %92

92:                                               ; preds = %91, %77
  %93 = load ptr, ptr %21, align 8
  %94 = getelementptr inbounds %struct._zval_struct, ptr %93, i32 1
  store ptr %94, ptr %21, align 8
  %95 = load ptr, ptr %21, align 8
  store ptr %95, ptr %22, align 8
  %96 = load ptr, ptr %22, align 8
  store ptr %96, ptr %7, align 8
  store ptr %14, ptr %8, align 8
  store i8 0, ptr %9, align 1
  store i8 0, ptr %10, align 1
  %97 = load ptr, ptr %7, align 8
  store ptr %97, ptr %3, align 8
  %98 = load ptr, ptr %3, align 8
  %99 = getelementptr inbounds %struct._zval_struct, ptr %98, i32 0, i32 1
  %100 = load i8, ptr %99, align 8
  %101 = zext i8 %100 to i32
  %102 = icmp eq i32 %101, 7
  br i1 %102, label %113, label %103

103:                                              ; preds = %92
  %104 = load i8, ptr %10, align 1
  %105 = trunc i8 %104 to i1
  br i1 %105, label %106, label %116

106:                                              ; preds = %103
  %107 = load ptr, ptr %7, align 8
  store ptr %107, ptr %4, align 8
  %108 = load ptr, ptr %4, align 8
  %109 = getelementptr inbounds %struct._zval_struct, ptr %108, i32 0, i32 1
  %110 = load i8, ptr %109, align 8
  %111 = zext i8 %110 to i32
  %112 = icmp eq i32 %111, 8
  br i1 %112, label %113, label %116

113:                                              ; preds = %106, %92
  %114 = load ptr, ptr %7, align 8
  %115 = load ptr, ptr %8, align 8
  store ptr %114, ptr %115, align 8
  br label %129

116:                                              ; preds = %106, %103
  %117 = load i8, ptr %9, align 1
  %118 = trunc i8 %117 to i1
  br i1 %118, label %119, label %128

119:                                              ; preds = %116
  %120 = load ptr, ptr %7, align 8
  store ptr %120, ptr %5, align 8
  %121 = load ptr, ptr %5, align 8
  %122 = getelementptr inbounds %struct._zval_struct, ptr %121, i32 0, i32 1
  %123 = load i8, ptr %122, align 8
  %124 = zext i8 %123 to i32
  %125 = icmp eq i32 %124, 1
  br i1 %125, label %126, label %128

126:                                              ; preds = %119
  %127 = load ptr, ptr %8, align 8
  store ptr null, ptr %127, align 8
  br label %129

128:                                              ; preds = %119, %116
  store i1 false, ptr %6, align 1
  br label %130

129:                                              ; preds = %126, %113
  store i1 true, ptr %6, align 1
  br label %130

130:                                              ; preds = %129, %128
  %131 = load i1, ptr %6, align 1
  %132 = xor i1 %131, true
  %133 = xor i1 %132, true
  %134 = xor i1 %133, true
  %135 = zext i1 %134 to i32
  %136 = sext i32 %135 to i64
  %137 = icmp ne i64 %136, 0
  br i1 %137, label %138, label %139

138:                                              ; preds = %130
  store i32 6, ptr %23, align 4
  store i32 9, ptr %27, align 4
  br label %148

139:                                              ; preds = %130
  %140 = load i32, ptr %20, align 4
  %141 = load i32, ptr %18, align 4
  %142 = icmp eq i32 %140, %141
  br i1 %142, label %146, label %143

143:                                              ; preds = %139
  %144 = load i32, ptr %18, align 4
  %145 = icmp eq i32 %144, -1
  br label %146

146:                                              ; preds = %143, %139
  %147 = phi i1 [ true, %139 ], [ %145, %143 ]
  call void @llvm.assume(i1 %147)
  br label %148

148:                                              ; preds = %146, %138, %90, %51
  %149 = load i32, ptr %27, align 4
  %150 = icmp ne i32 %149, 0
  %151 = xor i1 %150, true
  %152 = xor i1 %151, true
  %153 = zext i1 %152 to i32
  %154 = sext i32 %153 to i64
  %155 = icmp ne i64 %154, 0
  br i1 %155, label %156, label %162

156:                                              ; preds = %148
  %157 = load i32, ptr %27, align 4
  %158 = load i32, ptr %20, align 4
  %159 = load ptr, ptr %24, align 8
  %160 = load i32, ptr %23, align 4
  %161 = load ptr, ptr %22, align 8
  call void @zend_wrong_parameter_error(i32 noundef %157, i32 noundef %158, ptr noundef %159, i32 noundef %160, ptr noundef %161)
  br label %178

162:                                              ; preds = %148
  br label %163

163:                                              ; preds = %162
  %164 = load ptr, ptr %14, align 8
  %165 = getelementptr inbounds %struct._zval_struct, ptr %164, i32 0, i32 0
  %166 = load ptr, ptr %165, align 8
  store ptr %166, ptr %15, align 8
  %167 = load ptr, ptr %12, align 8
  %168 = load ptr, ptr @date_ce_period, align 8
  %169 = call i32 @object_init_ex(ptr noundef %167, ptr noundef %168)
  %170 = load ptr, ptr %12, align 8
  %171 = getelementptr inbounds %struct._zval_struct, ptr %170, i32 0, i32 0
  %172 = load ptr, ptr %171, align 8
  %173 = call ptr @php_period_obj_from_obj(ptr noundef %172)
  store ptr %173, ptr %13, align 8
  %174 = load ptr, ptr %13, align 8
  %175 = load ptr, ptr %15, align 8
  %176 = call zeroext i1 @php_date_period_initialize_from_hash(ptr noundef %174, ptr noundef %175)
  br i1 %176, label %178, label %177

177:                                              ; preds = %163
  call void (ptr, ptr, ...) @zend_throw_error(ptr noundef null, ptr noundef @.str.91)
  br label %178

178:                                              ; preds = %177, %163, %156
  ret void
}