; Function Attrs: nounwind uwtable
define hidden void @zim_DatePeriod___set_state(ptr noundef %0, ptr noundef %1) #0 {
  %3 = getelementptr inbounds i8, ptr %0, i64 44
  %4 = load i32, ptr %3, align 4
  %cond = icmp eq i32 %4, 1
  br i1 %cond, label %6, label %5

5:                                                ; preds = %2
  tail call void @zend_wrong_parameters_count_error(i32 noundef 1, i32 noundef 1) #25
  br label %10

6:                                                ; preds = %2
  %7 = getelementptr inbounds i8, ptr %0, i64 80
  %8 = getelementptr inbounds i8, ptr %0, i64 88
  %9 = load i8, ptr %8, align 8
  %.not52 = icmp eq i8 %9, 7
  br i1 %.not52, label %11, label %10

10:                                               ; preds = %5, %6
  %.048.ph = phi ptr [ %7, %6 ], [ null, %5 ]
  %.047.ph = phi i32 [ 6, %6 ], [ 0, %5 ]
  %.046.ph = phi i32 [ 1, %6 ], [ 0, %5 ]
  %.0.ph = phi i32 [ 9, %6 ], [ 1, %5 ]
  tail call void @zend_wrong_parameter_error(i32 noundef %.0.ph, i32 noundef %.046.ph, ptr noundef null, i32 noundef %.047.ph, ptr noundef %.048.ph) #25
  br label %19

11:                                               ; preds = %6
  %12 = load ptr, ptr %7, align 8
  %13 = load ptr, ptr @date_ce_period, align 8
  %14 = tail call i32 @object_init_ex(ptr noundef %1, ptr noundef %13) #25
  %15 = load ptr, ptr %1, align 8
  %16 = getelementptr inbounds i8, ptr %15, i64 -48
  %17 = tail call fastcc zeroext i1 @php_date_period_initialize_from_hash(ptr noundef nonnull %16, ptr noundef %12)
  br i1 %17, label %19, label %18

18:                                               ; preds = %11
  tail call void (ptr, ptr, ...) @zend_throw_error(ptr noundef null, ptr noundef nonnull @.str.91) #25
  br label %19

19:                                               ; preds = %18, %11, %10
  ret void
}